target datalayout = "e-m:e-p270:32:32-p271:32:32-p272:64:64-i64:64-i128:128-f80:128-n8:16:32:64-S128"
target triple = "x86_64-pc-linux-gnu"

@Truth6 = internal global [6 x i64] [i64 -6148914691236517206, i64 -3689348814741910324, i64 -1085102592571150096, i64 -71777214294589696, i64 -281470681808896, i64 -4294967296], align 16

; Function Attrs: inlinehint nounwind uwtable
define internal i32 @If_CluWordNum(i32 noundef %0) #3 {
  %2 = alloca i32, align 4
  store i32 %0, ptr %2, align 4, !tbaa !3
  %3 = load i32, ptr %2, align 4, !tbaa !3
  %4 = icmp sle i32 %3, 6
  br i1 %4, label %5, label %6

5:                                                ; preds = %1
  br label %10

6:                                                ; preds = %1
  %7 = load i32, ptr %2, align 4, !tbaa !3
  %8 = sub nsw i32 %7, 6
  %9 = shl i32 1, %8
  br label %10

10:                                               ; preds = %6, %5
  %11 = phi i32 [ 1, %5 ], [ %9, %6 ]
  ret i32 %11
}

; Function Attrs: nounwind uwtable
define void @If_CluCofactors(ptr noundef %0, i32 noundef %1, i32 noundef %2, ptr noundef %3, ptr noundef %4) #0 {
  %6 = alloca ptr, align 8
  %7 = alloca i32, align 4
  %8 = alloca i32, align 4
  %9 = alloca ptr, align 8
  %10 = alloca ptr, align 8
  %11 = alloca i32, align 4
  %12 = alloca i32, align 4
  %13 = alloca i32, align 4
  %14 = alloca i32, align 4
  %15 = alloca i32, align 4
  %16 = alloca i32, align 4
  store ptr %0, ptr %6, align 8, !tbaa !51
  store i32 %1, ptr %7, align 4, !tbaa !3
  store i32 %2, ptr %8, align 4, !tbaa !3
  store ptr %3, ptr %9, align 8, !tbaa !51
  store ptr %4, ptr %10, align 8, !tbaa !51
  call void @llvm.lifetime.start.p0(i64 4, ptr %11) #11
  %17 = load i32, ptr %7, align 4, !tbaa !3
  %18 = call i32 @If_CluWordNum(i32 noundef %17)
  store i32 %18, ptr %11, align 4, !tbaa !3
  %19 = load i32, ptr %8, align 4, !tbaa !3
  %20 = icmp slt i32 %19, 6
  br i1 %20, label %21, label %91

21:                                               ; preds = %5
  call void @llvm.lifetime.start.p0(i64 4, ptr %12) #11
  call void @llvm.lifetime.start.p0(i64 4, ptr %13) #11
  %22 = load i32, ptr %8, align 4, !tbaa !3
  %23 = shl i32 1, %22
  store i32 %23, ptr %13, align 4, !tbaa !3
  store i32 0, ptr %12, align 4, !tbaa !3
  br label %24

24:                                               ; preds = %87, %21
  %25 = load i32, ptr %12, align 4, !tbaa !3
  %26 = load i32, ptr %11, align 4, !tbaa !3
  %27 = icmp slt i32 %25, %26
  br i1 %27, label %28, label %90

28:                                               ; preds = %24
  %29 = load ptr, ptr %6, align 8, !tbaa !51
  %30 = load i32, ptr %12, align 4, !tbaa !3
  %31 = sext i32 %30 to i64
  %32 = getelementptr inbounds i64, ptr %29, i64 %31
  %33 = load i64, ptr %32, align 8, !tbaa !79
  %34 = load i32, ptr %8, align 4, !tbaa !3
  %35 = sext i32 %34 to i64
  %36 = getelementptr inbounds [6 x i64], ptr @Truth6, i64 0, i64 %35
  %37 = load i64, ptr %36, align 8, !tbaa !79
  %38 = xor i64 %37, -1
  %39 = and i64 %33, %38
  %40 = load ptr, ptr %6, align 8, !tbaa !51
  %41 = load i32, ptr %12, align 4, !tbaa !3
  %42 = sext i32 %41 to i64
  %43 = getelementptr inbounds i64, ptr %40, i64 %42
  %44 = load i64, ptr %43, align 8, !tbaa !79
  %45 = load i32, ptr %8, align 4, !tbaa !3
  %46 = sext i32 %45 to i64
  %47 = getelementptr inbounds [6 x i64], ptr @Truth6, i64 0, i64 %46
  %48 = load i64, ptr %47, align 8, !tbaa !79
  %49 = xor i64 %48, -1
  %50 = and i64 %44, %49
  %51 = load i32, ptr %13, align 4, !tbaa !3
  %52 = zext i32 %51 to i64
  %53 = shl i64 %50, %52
  %54 = or i64 %39, %53
  %55 = load ptr, ptr %9, align 8, !tbaa !51
  %56 = load i32, ptr %12, align 4, !tbaa !3
  %57 = sext i32 %56 to i64
  %58 = getelementptr inbounds i64, ptr %55, i64 %57
  store i64 %54, ptr %58, align 8, !tbaa !79
  %59 = load ptr, ptr %6, align 8, !tbaa !51
  %60 = load i32, ptr %12, align 4, !tbaa !3
  %61 = sext i32 %60 to i64
  %62 = getelementptr inbounds i64, ptr %59, i64 %61
  %63 = load i64, ptr %62, align 8, !tbaa !79
  %64 = load i32, ptr %8, align 4, !tbaa !3
  %65 = sext i32 %64 to i64
  %66 = getelementptr inbounds [6 x i64], ptr @Truth6, i64 0, i64 %65
  %67 = load i64, ptr %66, align 8, !tbaa !79
  %68 = and i64 %63, %67
  %69 = load ptr, ptr %6, align 8, !tbaa !51
  %70 = load i32, ptr %12, align 4, !tbaa !3
  %71 = sext i32 %70 to i64
  %72 = getelementptr inbounds i64, ptr %69, i64 %71
  %73 = load i64, ptr %72, align 8, !tbaa !79
  %74 = load i32, ptr %8, align 4, !tbaa !3
  %75 = sext i32 %74 to i64
  %76 = getelementptr inbounds [6 x i64], ptr @Truth6, i64 0, i64 %75
  %77 = load i64, ptr %76, align 8, !tbaa !79
  %78 = and i64 %73, %77
  %79 = load i32, ptr %13, align 4, !tbaa !3
  %80 = zext i32 %79 to i64
  %81 = lshr i64 %78, %80
  %82 = or i64 %68, %81
  %83 = load ptr, ptr %10, align 8, !tbaa !51
  %84 = load i32, ptr %12, align 4, !tbaa !3
  %85 = sext i32 %84 to i64
  %86 = getelementptr inbounds i64, ptr %83, i64 %85
  store i64 %82, ptr %86, align 8, !tbaa !79
  br label %87

87:                                               ; preds = %28
  %88 = load i32, ptr %12, align 4, !tbaa !3
  %89 = add nsw i32 %88, 1
  store i32 %89, ptr %12, align 4, !tbaa !3
  br label %24, !llvm.loop !140

90:                                               ; preds = %24
  call void @llvm.lifetime.end.p0(i64 4, ptr %13) #11
  call void @llvm.lifetime.end.p0(i64 4, ptr %12) #11
  br label %162

91:                                               ; preds = %5
  call void @llvm.lifetime.start.p0(i64 4, ptr %14) #11
  call void @llvm.lifetime.start.p0(i64 4, ptr %15) #11
  call void @llvm.lifetime.start.p0(i64 4, ptr %16) #11
  %92 = load i32, ptr %8, align 4, !tbaa !3
  %93 = sub nsw i32 %92, 6
  %94 = shl i32 1, %93
  store i32 %94, ptr %16, align 4, !tbaa !3
  store i32 0, ptr %15, align 4, !tbaa !3
  br label %95

95:                                               ; preds = %156, %91
  %96 = load i32, ptr %15, align 4, !tbaa !3
  %97 = load i32, ptr %11, align 4, !tbaa !3
  %98 = icmp slt i32 %96, %97
  br i1 %98, label %99, label %161

99:                                               ; preds = %95
  store i32 0, ptr %14, align 4, !tbaa !3
  br label %100

100:                                              ; preds = %137, %99
  %101 = load i32, ptr %14, align 4, !tbaa !3
  %102 = load i32, ptr %16, align 4, !tbaa !3
  %103 = icmp slt i32 %101, %102
  br i1 %103, label %104, label %140

104:                                              ; preds = %100
  %105 = load ptr, ptr %6, align 8, !tbaa !51
  %106 = load i32, ptr %14, align 4, !tbaa !3
  %107 = sext i32 %106 to i64
  %108 = getelementptr inbounds i64, ptr %105, i64 %107
  %109 = load i64, ptr %108, align 8, !tbaa !79
  %110 = load ptr, ptr %9, align 8, !tbaa !51
  %111 = load i32, ptr %16, align 4, !tbaa !3
  %112 = load i32, ptr %14, align 4, !tbaa !3
  %113 = add nsw i32 %111, %112
  %114 = sext i32 %113 to i64
  %115 = getelementptr inbounds i64, ptr %110, i64 %114
  store i64 %109, ptr %115, align 8, !tbaa !79
  %116 = load ptr, ptr %9, align 8, !tbaa !51
  %117 = load i32, ptr %14, align 4, !tbaa !3
  %118 = sext i32 %117 to i64
  %119 = getelementptr inbounds i64, ptr %116, i64 %118
  store i64 %109, ptr %119, align 8, !tbaa !79
  %120 = load ptr, ptr %6, align 8, !tbaa !51
  %121 = load i32, ptr %16, align 4, !tbaa !3
  %122 = load i32, ptr %14, align 4, !tbaa !3
  %123 = add nsw i32 %121, %122
  %124 = sext i32 %123 to i64
  %125 = getelementptr inbounds i64, ptr %120, i64 %124
  %126 = load i64, ptr %125, align 8, !tbaa !79
  %127 = load ptr, ptr %10, align 8, !tbaa !51
  %128 = load i32, ptr %16, align 4, !tbaa !3
  %129 = load i32, ptr %14, align 4, !tbaa !3
  %130 = add nsw i32 %128, %129
  %131 = sext i32 %130 to i64
  %132 = getelementptr inbounds i64, ptr %127, i64 %131
  store i64 %126, ptr %132, align 8, !tbaa !79
  %133 = load ptr, ptr %10, align 8, !tbaa !51
  %134 = load i32, ptr %14, align 4, !tbaa !3
  %135 = sext i32 %134 to i64
  %136 = getelementptr inbounds i64, ptr %133, i64 %135
  store i64 %126, ptr %136, align 8, !tbaa !79
  br label %137

137:                                              ; preds = %104
  %138 = load i32, ptr %14, align 4, !tbaa !3
  %139 = add nsw i32 %138, 1
  store i32 %139, ptr %14, align 4, !tbaa !3
  br label %100, !llvm.loop !141

140:                                              ; preds = %100
  %141 = load i32, ptr %16, align 4, !tbaa !3
  %142 = mul nsw i32 2, %141
  %143 = load ptr, ptr %6, align 8, !tbaa !51
  %144 = sext i32 %142 to i64
  %145 = getelementptr inbounds i64, ptr %143, i64 %144
  store ptr %145, ptr %6, align 8, !tbaa !51
  %146 = load i32, ptr %16, align 4, !tbaa !3
  %147 = mul nsw i32 2, %146
  %148 = load ptr, ptr %9, align 8, !tbaa !51
  %149 = sext i32 %147 to i64
  %150 = getelementptr inbounds i64, ptr %148, i64 %149
  store ptr %150, ptr %9, align 8, !tbaa !51
  %151 = load i32, ptr %16, align 4, !tbaa !3
  %152 = mul nsw i32 2, %151
  %153 = load ptr, ptr %10, align 8, !tbaa !51
  %154 = sext i32 %152 to i64
  %155 = getelementptr inbounds i64, ptr %153, i64 %154
  store ptr %155, ptr %10, align 8, !tbaa !51
  br label %156

156:                                              ; preds = %140
  %157 = load i32, ptr %16, align 4, !tbaa !3
  %158 = mul nsw i32 2, %157
  %159 = load i32, ptr %15, align 4, !tbaa !3
  %160 = add nsw i32 %159, %158
  store i32 %160, ptr %15, align 4, !tbaa !3
  br label %95, !llvm.loop !142

161:                                              ; preds = %95
  call void @llvm.lifetime.end.p0(i64 4, ptr %16) #11
  call void @llvm.lifetime.end.p0(i64 4, ptr %15) #11
  call void @llvm.lifetime.end.p0(i64 4, ptr %14) #11
  br label %162

162:                                              ; preds = %161, %90
  call void @llvm.lifetime.end.p0(i64 4, ptr %11) #11
  ret void
}