; Function Attrs: nofree norecurse nosync nounwind memory(argmem: readwrite) uwtable
define void @If_CluCofactors(ptr noundef readonly captures(none) %0, i32 noundef %1, i32 noundef %2, ptr noundef writeonly captures(none) %3, ptr noundef writeonly captures(none) %4) local_unnamed_addr #10 {
  %6 = icmp slt i32 %1, 7
  %7 = add nsw i32 %1, -6
  %8 = shl nuw i32 1, %7
  %9 = select i1 %6, i32 1, i32 %8
  %10 = icmp slt i32 %2, 6
  br i1 %10, label %11, label %31

11:                                               ; preds = %5
  %12 = icmp sgt i32 %9, 0
  br i1 %12, label %.lr.ph, label %.loopexit

.lr.ph:                                           ; preds = %11
  %13 = shl nuw nsw i32 1, %2
  %14 = sext i32 %2 to i64
  %15 = getelementptr inbounds [6 x i64], ptr @s_Truths6, i64 0, i64 %14
  %16 = load i64, ptr %15, align 8, !tbaa !16
  %17 = xor i64 %16, -1
  %18 = zext nneg i32 %13 to i64
  %wide.trip.count73 = zext nneg i32 %9 to i64
  br label %19

19:                                               ; preds = %.lr.ph, %19
  %indvars.iv70 = phi i64 [ 0, %.lr.ph ], [ %indvars.iv.next71, %19 ]
  %20 = getelementptr inbounds nuw i64, ptr %0, i64 %indvars.iv70
  %21 = load i64, ptr %20, align 8, !tbaa !16
  %22 = and i64 %21, %17
  %23 = shl i64 %22, %18
  %24 = or i64 %23, %22
  %25 = getelementptr inbounds nuw i64, ptr %3, i64 %indvars.iv70
  store i64 %24, ptr %25, align 8, !tbaa !16
  %26 = load i64, ptr %20, align 8, !tbaa !16
  %27 = and i64 %26, %16
  %28 = lshr i64 %27, %18
  %29 = or i64 %28, %27
  %30 = getelementptr inbounds nuw i64, ptr %4, i64 %indvars.iv70
  store i64 %29, ptr %30, align 8, !tbaa !16
  %indvars.iv.next71 = add nuw nsw i64 %indvars.iv70, 1
  %exitcond74.not = icmp eq i64 %indvars.iv.next71, %wide.trip.count73
  br i1 %exitcond74.not, label %.loopexit, label %19, !llvm.loop !148

31:                                               ; preds = %5
  %32 = add nsw i32 %2, -6
  %33 = shl nuw i32 1, %32
  %34 = icmp sgt i32 %9, 0
  br i1 %34, label %.preheader.lr.ph, label %.loopexit

.preheader.lr.ph:                                 ; preds = %31
  %.not = icmp eq i32 %32, 31
  %35 = shl i32 2, %32
  %36 = sext i32 %35 to i64
  br i1 %.not, label %.loopexit, label %.preheader.us.preheader

.preheader.us.preheader:                          ; preds = %.preheader.lr.ph
  %37 = sext i32 %33 to i64
  %smax = tail call i32 @llvm.smax.i32(i32 %33, i32 1)
  %wide.trip.count = zext nneg i32 %smax to i64
  br label %.preheader.us

.preheader.us:                                    ; preds = %.preheader.us.preheader, %._crit_edge.us
  %.065.us = phi ptr [ %48, %._crit_edge.us ], [ %0, %.preheader.us.preheader ]
  %.05264.us = phi i32 [ %51, %._crit_edge.us ], [ 0, %.preheader.us.preheader ]
  %.05463.us = phi ptr [ %49, %._crit_edge.us ], [ %3, %.preheader.us.preheader ]
  %.05662.us = phi ptr [ %50, %._crit_edge.us ], [ %4, %.preheader.us.preheader ]
  br label %38

38:                                               ; preds = %.preheader.us, %38
  %indvars.iv = phi i64 [ 0, %.preheader.us ], [ %indvars.iv.next, %38 ]
  %39 = getelementptr inbounds nuw i64, ptr %.065.us, i64 %indvars.iv
  %40 = load i64, ptr %39, align 8, !tbaa !16
  %41 = add nuw nsw i64 %indvars.iv, %37
  %42 = getelementptr inbounds i64, ptr %.05463.us, i64 %41
  store i64 %40, ptr %42, align 8, !tbaa !16
  %43 = getelementptr inbounds nuw i64, ptr %.05463.us, i64 %indvars.iv
  store i64 %40, ptr %43, align 8, !tbaa !16
  %44 = getelementptr inbounds i64, ptr %.065.us, i64 %41
  %45 = load i64, ptr %44, align 8, !tbaa !16
  %46 = getelementptr inbounds i64, ptr %.05662.us, i64 %41
  store i64 %45, ptr %46, align 8, !tbaa !16
  %47 = getelementptr inbounds nuw i64, ptr %.05662.us, i64 %indvars.iv
  store i64 %45, ptr %47, align 8, !tbaa !16
  %indvars.iv.next = add nuw nsw i64 %indvars.iv, 1
  %exitcond.not = icmp eq i64 %indvars.iv.next, %wide.trip.count
  br i1 %exitcond.not, label %._crit_edge.us, label %38, !llvm.loop !149

._crit_edge.us:                                   ; preds = %38
  %48 = getelementptr inbounds i64, ptr %.065.us, i64 %36
  %49 = getelementptr inbounds i64, ptr %.05463.us, i64 %36
  %50 = getelementptr inbounds i64, ptr %.05662.us, i64 %36
  %51 = add nsw i32 %.05264.us, %35
  %52 = icmp slt i32 %51, %9
  br i1 %52, label %.preheader.us, label %.loopexit, !llvm.loop !150

.loopexit:                                        ; preds = %._crit_edge.us, %19, %.preheader.lr.ph, %31, %11
  ret void
}